; Function Attrs: mustprogress nounwind uwtable
define hidden noundef double @_ZNK8G1Policy15average_time_msEN14G1GCPhaseTimes11GCParPhasesE(ptr nocapture noundef nonnull align 8 dereferenceable(552) %0, i32 noundef %1) local_unnamed_addr #1 align 2 {
  %3 = getelementptr inbounds i8, ptr %0, i64 256
  %4 = load ptr, ptr %3, align 8
  %5 = icmp eq ptr %4, null
  br i1 %5, label %6, label %_ZNK8G1Policy11phase_timesEv.exit

6:                                                ; preds = %2
  %7 = tail call noundef ptr @_Z12AllocateHeapm8MEMFLAGSN17AllocFailStrategy13AllocFailEnumE(i64 noundef 872, i8 noundef zeroext 5, i32 noundef 0) #18
  %8 = getelementptr inbounds i8, ptr %0, i64 248
  %9 = load ptr, ptr %8, align 8
  %10 = load i32, ptr @ParallelGCThreads, align 4
  tail call void @_ZN14G1GCPhaseTimesC1EP10STWGCTimerj(ptr noundef nonnull align 8 dereferenceable(872) %7, ptr noundef %9, i32 noundef %10) #18
  store ptr %7, ptr %3, align 8
  br label %_ZNK8G1Policy11phase_timesEv.exit

_ZNK8G1Policy11phase_timesEv.exit:                ; preds = %2, %6
  %11 = phi ptr [ %7, %6 ], [ %4, %2 ]
  %12 = tail call noundef double @_ZNK14G1GCPhaseTimes15average_time_msENS_11GCParPhasesE(ptr noundef nonnull align 8 dereferenceable(872) %11, i32 noundef %1) #18
  ret double %12
}